target datalayout = "e-m:e-p270:32:32-p271:32:32-p272:64:64-i64:64-i128:128-f80:128-n8:16:32:64-S128"
target triple = "x86_64-pc-linux-gnu"

%"class.Luau::CstNode" = type { i32 }
%"struct.Luau::Position" = type { i32, i32 }
%"class.Luau::CstTypeTypeof" = type { %"class.Luau::CstNode", %"struct.Luau::Position", %"struct.Luau::Position" }

@_ZN4Luau7CstRttiINS_13CstTypeTypeofEE5valueE = linkonce_odr dso_local global i32 0, comdat, align 4

; Function Attrs: mustprogress nounwind uwtable
define linkonce_odr dso_local void @_ZN4Luau7CstNodeC2Ei(ptr noundef nonnull align 4 dereferenceable(4) %0, i32 noundef %1) unnamed_addr #3 comdat align 2 {
  %3 = alloca ptr, align 8
  %4 = alloca i32, align 4
  store ptr %0, ptr %3, align 8, !tbaa !18
  store i32 %1, ptr %4, align 4, !tbaa !4
  %5 = load ptr, ptr %3, align 8
  %6 = getelementptr inbounds nuw %"class.Luau::CstNode", ptr %5, i32 0, i32 0
  %7 = load i32, ptr %4, align 4, !tbaa !4
  store i32 %7, ptr %6, align 4, !tbaa !20
  ret void
}

; Function Attrs: mustprogress nounwind uwtable
define linkonce_odr dso_local noundef i32 @_ZN4Luau13CstTypeTypeof13CstClassIndexEv() #3 comdat align 2 {
  %1 = load i32, ptr @_ZN4Luau7CstRttiINS_13CstTypeTypeofEE5valueE, align 4, !tbaa !4
  ret i32 %1
}

; Function Attrs: mustprogress uwtable
define dso_local void @_ZN4Luau13CstTypeTypeofC2ENS_8PositionES1_(ptr noundef nonnull align 4 dereferenceable(20) %0, i64 %1, i64 %2) unnamed_addr #2 align 2 {
  %4 = alloca %"struct.Luau::Position", align 4
  %5 = alloca %"struct.Luau::Position", align 4
  %6 = alloca ptr, align 8
  store i64 %1, ptr %4, align 4
  store i64 %2, ptr %5, align 4
  store ptr %0, ptr %6, align 8, !tbaa !95
  %7 = load ptr, ptr %6, align 8
  %8 = call noundef i32 @_ZN4Luau13CstTypeTypeof13CstClassIndexEv()
  call void @_ZN4Luau7CstNodeC2Ei(ptr noundef nonnull align 4 dereferenceable(4) %7, i32 noundef %8)
  %9 = getelementptr inbounds nuw %"class.Luau::CstTypeTypeof", ptr %7, i32 0, i32 1
  call void @llvm.memcpy.p0.p0.i64(ptr align 4 %9, ptr align 4 %4, i64 8, i1 false), !tbaa.struct !37
  %10 = getelementptr inbounds nuw %"class.Luau::CstTypeTypeof", ptr %7, i32 0, i32 2
  call void @llvm.memcpy.p0.p0.i64(ptr align 4 %10, ptr align 4 %5, i64 8, i1 false), !tbaa.struct !37
  ret void
}